target datalayout = "e-m:e-p270:32:32-p271:32:32-p272:64:64-i64:64-i128:128-f80:128-n8:16:32:64-S128"
target triple = "x86_64-pc-linux-gnu"

%struct.AVChannelLayout = type { i32, i32, %union.anon.1, ptr }
%union.anon.1 = type { i64 }
%struct.AVRational = type { i32, i32 }
%struct.FillBordersContext = type { ptr, i32, i32, i32, i32, i32, i32, i32, [4 x %struct.Borders], [4 x i32], [4 x i32], [4 x i8], [4 x i8], [4 x i8], ptr }
%struct.Borders = type { i32, i32, i32, i32 }
%struct.AVFrame = type { [8 x ptr], [8 x i32], ptr, i32, i32, i32, i32, i32, %struct.AVRational, i64, i64, %struct.AVRational, i32, ptr, i32, i32, [8 x ptr], ptr, i32, ptr, i32, i32, i32, i32, i32, i32, i32, i64, ptr, i32, ptr, ptr, i64, i64, i64, i64, ptr, %struct.AVChannelLayout, i64 }

; Function Attrs: nounwind uwtable
define internal void @reflect_borders8(ptr noundef %0, ptr noundef %1) #0 {
  %3 = alloca ptr, align 8
  %4 = alloca ptr, align 8
  %5 = alloca i32, align 4
  %6 = alloca i32, align 4
  %7 = alloca i32, align 4
  %8 = alloca ptr, align 8
  %9 = alloca i64, align 8
  store ptr %0, ptr %3, align 8, !tbaa !37
  store ptr %1, ptr %4, align 8, !tbaa !26
  call void @llvm.lifetime.start.p0(i64 4, ptr %5) #8
  call void @llvm.lifetime.start.p0(i64 4, ptr %6) #8
  call void @llvm.lifetime.start.p0(i64 4, ptr %7) #8
  store i32 0, ptr %5, align 4, !tbaa !11
  br label %10

10:                                               ; preds = %280, %2
  %11 = load i32, ptr %5, align 4, !tbaa !11
  %12 = load ptr, ptr %3, align 8, !tbaa !37
  %13 = getelementptr inbounds nuw %struct.FillBordersContext, ptr %12, i32 0, i32 6
  %14 = load i32, ptr %13, align 4, !tbaa !48
  %15 = icmp slt i32 %11, %14
  br i1 %15, label %16, label %283

16:                                               ; preds = %10
  call void @llvm.lifetime.start.p0(i64 8, ptr %8) #8
  %17 = load ptr, ptr %4, align 8, !tbaa !26
  %18 = getelementptr inbounds nuw %struct.AVFrame, ptr %17, i32 0, i32 0
  %19 = load i32, ptr %5, align 4, !tbaa !11
  %20 = sext i32 %19 to i64
  %21 = getelementptr inbounds [8 x ptr], ptr %18, i64 0, i64 %20
  %22 = load ptr, ptr %21, align 8, !tbaa !9
  store ptr %22, ptr %8, align 8, !tbaa !9
  call void @llvm.lifetime.start.p0(i64 8, ptr %9) #8
  %23 = load ptr, ptr %4, align 8, !tbaa !26
  %24 = getelementptr inbounds nuw %struct.AVFrame, ptr %23, i32 0, i32 1
  %25 = load i32, ptr %5, align 4, !tbaa !11
  %26 = sext i32 %25 to i64
  %27 = getelementptr inbounds [8 x i32], ptr %24, i64 0, i64 %26
  %28 = load i32, ptr %27, align 4, !tbaa !11
  %29 = sext i32 %28 to i64
  store i64 %29, ptr %9, align 8, !tbaa !70
  %30 = load ptr, ptr %3, align 8, !tbaa !37
  %31 = getelementptr inbounds nuw %struct.FillBordersContext, ptr %30, i32 0, i32 8
  %32 = load i32, ptr %5, align 4, !tbaa !11
  %33 = sext i32 %32 to i64
  %34 = getelementptr inbounds [4 x %struct.Borders], ptr %31, i64 0, i64 %33
  %35 = getelementptr inbounds nuw %struct.Borders, ptr %34, i32 0, i32 2
  %36 = load i32, ptr %35, align 4, !tbaa !63
  store i32 %36, ptr %6, align 4, !tbaa !11
  br label %37

37:                                               ; preds = %168, %16
  %38 = load i32, ptr %6, align 4, !tbaa !11
  %39 = load ptr, ptr %3, align 8, !tbaa !37
  %40 = getelementptr inbounds nuw %struct.FillBordersContext, ptr %39, i32 0, i32 10
  %41 = load i32, ptr %5, align 4, !tbaa !11
  %42 = sext i32 %41 to i64
  %43 = getelementptr inbounds [4 x i32], ptr %40, i64 0, i64 %42
  %44 = load i32, ptr %43, align 4, !tbaa !11
  %45 = load ptr, ptr %3, align 8, !tbaa !37
  %46 = getelementptr inbounds nuw %struct.FillBordersContext, ptr %45, i32 0, i32 8
  %47 = load i32, ptr %5, align 4, !tbaa !11
  %48 = sext i32 %47 to i64
  %49 = getelementptr inbounds [4 x %struct.Borders], ptr %46, i64 0, i64 %48
  %50 = getelementptr inbounds nuw %struct.Borders, ptr %49, i32 0, i32 3
  %51 = load i32, ptr %50, align 4, !tbaa !64
  %52 = sub nsw i32 %44, %51
  %53 = icmp slt i32 %38, %52
  br i1 %53, label %54, label %171

54:                                               ; preds = %37
  store i32 0, ptr %7, align 4, !tbaa !11
  br label %55

55:                                               ; preds = %95, %54
  %56 = load i32, ptr %7, align 4, !tbaa !11
  %57 = load ptr, ptr %3, align 8, !tbaa !37
  %58 = getelementptr inbounds nuw %struct.FillBordersContext, ptr %57, i32 0, i32 8
  %59 = load i32, ptr %5, align 4, !tbaa !11
  %60 = sext i32 %59 to i64
  %61 = getelementptr inbounds [4 x %struct.Borders], ptr %58, i64 0, i64 %60
  %62 = getelementptr inbounds nuw %struct.Borders, ptr %61, i32 0, i32 0
  %63 = load i32, ptr %62, align 4, !tbaa !60
  %64 = icmp slt i32 %56, %63
  br i1 %64, label %65, label %98

65:                                               ; preds = %55
  %66 = load ptr, ptr %8, align 8, !tbaa !9
  %67 = load i32, ptr %6, align 4, !tbaa !11
  %68 = sext i32 %67 to i64
  %69 = load i64, ptr %9, align 8, !tbaa !70
  %70 = mul nsw i64 %68, %69
  %71 = load ptr, ptr %3, align 8, !tbaa !37
  %72 = getelementptr inbounds nuw %struct.FillBordersContext, ptr %71, i32 0, i32 8
  %73 = load i32, ptr %5, align 4, !tbaa !11
  %74 = sext i32 %73 to i64
  %75 = getelementptr inbounds [4 x %struct.Borders], ptr %72, i64 0, i64 %74
  %76 = getelementptr inbounds nuw %struct.Borders, ptr %75, i32 0, i32 0
  %77 = load i32, ptr %76, align 4, !tbaa !60
  %78 = mul nsw i32 %77, 2
  %79 = sext i32 %78 to i64
  %80 = add nsw i64 %70, %79
  %81 = load i32, ptr %7, align 4, !tbaa !11
  %82 = sext i32 %81 to i64
  %83 = sub nsw i64 %80, %82
  %84 = getelementptr inbounds i8, ptr %66, i64 %83
  %85 = load i8, ptr %84, align 1, !tbaa !66
  %86 = load ptr, ptr %8, align 8, !tbaa !9
  %87 = load i32, ptr %6, align 4, !tbaa !11
  %88 = sext i32 %87 to i64
  %89 = load i64, ptr %9, align 8, !tbaa !70
  %90 = mul nsw i64 %88, %89
  %91 = load i32, ptr %7, align 4, !tbaa !11
  %92 = sext i32 %91 to i64
  %93 = add nsw i64 %90, %92
  %94 = getelementptr inbounds i8, ptr %86, i64 %93
  store i8 %85, ptr %94, align 1, !tbaa !66
  br label %95

95:                                               ; preds = %65
  %96 = load i32, ptr %7, align 4, !tbaa !11
  %97 = add nsw i32 %96, 1
  store i32 %97, ptr %7, align 4, !tbaa !11
  br label %55, !llvm.loop !109

98:                                               ; preds = %55
  store i32 0, ptr %7, align 4, !tbaa !11
  br label %99

99:                                               ; preds = %164, %98
  %100 = load i32, ptr %7, align 4, !tbaa !11
  %101 = load ptr, ptr %3, align 8, !tbaa !37
  %102 = getelementptr inbounds nuw %struct.FillBordersContext, ptr %101, i32 0, i32 8
  %103 = load i32, ptr %5, align 4, !tbaa !11
  %104 = sext i32 %103 to i64
  %105 = getelementptr inbounds [4 x %struct.Borders], ptr %102, i64 0, i64 %104
  %106 = getelementptr inbounds nuw %struct.Borders, ptr %105, i32 0, i32 1
  %107 = load i32, ptr %106, align 4, !tbaa !62
  %108 = icmp slt i32 %100, %107
  br i1 %108, label %109, label %167

109:                                              ; preds = %99
  %110 = load ptr, ptr %8, align 8, !tbaa !9
  %111 = load i32, ptr %6, align 4, !tbaa !11
  %112 = sext i32 %111 to i64
  %113 = load i64, ptr %9, align 8, !tbaa !70
  %114 = mul nsw i64 %112, %113
  %115 = load ptr, ptr %3, align 8, !tbaa !37
  %116 = getelementptr inbounds nuw %struct.FillBordersContext, ptr %115, i32 0, i32 9
  %117 = load i32, ptr %5, align 4, !tbaa !11
  %118 = sext i32 %117 to i64
  %119 = getelementptr inbounds [4 x i32], ptr %116, i64 0, i64 %118
  %120 = load i32, ptr %119, align 4, !tbaa !11
  %121 = sext i32 %120 to i64
  %122 = add nsw i64 %114, %121
  %123 = load ptr, ptr %3, align 8, !tbaa !37
  %124 = getelementptr inbounds nuw %struct.FillBordersContext, ptr %123, i32 0, i32 8
  %125 = load i32, ptr %5, align 4, !tbaa !11
  %126 = sext i32 %125 to i64
  %127 = getelementptr inbounds [4 x %struct.Borders], ptr %124, i64 0, i64 %126
  %128 = getelementptr inbounds nuw %struct.Borders, ptr %127, i32 0, i32 1
  %129 = load i32, ptr %128, align 4, !tbaa !62
  %130 = sext i32 %129 to i64
  %131 = sub nsw i64 %122, %130
  %132 = sub nsw i64 %131, 2
  %133 = load i32, ptr %7, align 4, !tbaa !11
  %134 = sext i32 %133 to i64
  %135 = sub nsw i64 %132, %134
  %136 = getelementptr inbounds i8, ptr %110, i64 %135
  %137 = load i8, ptr %136, align 1, !tbaa !66
  %138 = load ptr, ptr %8, align 8, !tbaa !9
  %139 = load i32, ptr %6, align 4, !tbaa !11
  %140 = sext i32 %139 to i64
  %141 = load i64, ptr %9, align 8, !tbaa !70
  %142 = mul nsw i64 %140, %141
  %143 = load ptr, ptr %3, align 8, !tbaa !37
  %144 = getelementptr inbounds nuw %struct.FillBordersContext, ptr %143, i32 0, i32 9
  %145 = load i32, ptr %5, align 4, !tbaa !11
  %146 = sext i32 %145 to i64
  %147 = getelementptr inbounds [4 x i32], ptr %144, i64 0, i64 %146
  %148 = load i32, ptr %147, align 4, !tbaa !11
  %149 = sext i32 %148 to i64
  %150 = add nsw i64 %142, %149
  %151 = load ptr, ptr %3, align 8, !tbaa !37
  %152 = getelementptr inbounds nuw %struct.FillBordersContext, ptr %151, i32 0, i32 8
  %153 = load i32, ptr %5, align 4, !tbaa !11
  %154 = sext i32 %153 to i64
  %155 = getelementptr inbounds [4 x %struct.Borders], ptr %152, i64 0, i64 %154
  %156 = getelementptr inbounds nuw %struct.Borders, ptr %155, i32 0, i32 1
  %157 = load i32, ptr %156, align 4, !tbaa !62
  %158 = sext i32 %157 to i64
  %159 = sub nsw i64 %150, %158
  %160 = load i32, ptr %7, align 4, !tbaa !11
  %161 = sext i32 %160 to i64
  %162 = add nsw i64 %159, %161
  %163 = getelementptr inbounds i8, ptr %138, i64 %162
  store i8 %137, ptr %163, align 1, !tbaa !66
  br label %164

164:                                              ; preds = %109
  %165 = load i32, ptr %7, align 4, !tbaa !11
  %166 = add nsw i32 %165, 1
  store i32 %166, ptr %7, align 4, !tbaa !11
  br label %99, !llvm.loop !110

167:                                              ; preds = %99
  br label %168

168:                                              ; preds = %167
  %169 = load i32, ptr %6, align 4, !tbaa !11
  %170 = add nsw i32 %169, 1
  store i32 %170, ptr %6, align 4, !tbaa !11
  br label %37, !llvm.loop !111

171:                                              ; preds = %37
  store i32 0, ptr %6, align 4, !tbaa !11
  br label %172

172:                                              ; preds = %211, %171
  %173 = load i32, ptr %6, align 4, !tbaa !11
  %174 = load ptr, ptr %3, align 8, !tbaa !37
  %175 = getelementptr inbounds nuw %struct.FillBordersContext, ptr %174, i32 0, i32 8
  %176 = load i32, ptr %5, align 4, !tbaa !11
  %177 = sext i32 %176 to i64
  %178 = getelementptr inbounds [4 x %struct.Borders], ptr %175, i64 0, i64 %177
  %179 = getelementptr inbounds nuw %struct.Borders, ptr %178, i32 0, i32 2
  %180 = load i32, ptr %179, align 4, !tbaa !63
  %181 = icmp slt i32 %173, %180
  br i1 %181, label %182, label %214

182:                                              ; preds = %172
  %183 = load ptr, ptr %8, align 8, !tbaa !9
  %184 = load i32, ptr %6, align 4, !tbaa !11
  %185 = sext i32 %184 to i64
  %186 = load i64, ptr %9, align 8, !tbaa !70
  %187 = mul nsw i64 %185, %186
  %188 = getelementptr inbounds i8, ptr %183, i64 %187
  %189 = load ptr, ptr %8, align 8, !tbaa !9
  %190 = load ptr, ptr %3, align 8, !tbaa !37
  %191 = getelementptr inbounds nuw %struct.FillBordersContext, ptr %190, i32 0, i32 8
  %192 = load i32, ptr %5, align 4, !tbaa !11
  %193 = sext i32 %192 to i64
  %194 = getelementptr inbounds [4 x %struct.Borders], ptr %191, i64 0, i64 %193
  %195 = getelementptr inbounds nuw %struct.Borders, ptr %194, i32 0, i32 2
  %196 = load i32, ptr %195, align 4, !tbaa !63
  %197 = mul nsw i32 %196, 2
  %198 = load i32, ptr %6, align 4, !tbaa !11
  %199 = sub nsw i32 %197, %198
  %200 = sext i32 %199 to i64
  %201 = load i64, ptr %9, align 8, !tbaa !70
  %202 = mul nsw i64 %200, %201
  %203 = getelementptr inbounds i8, ptr %189, i64 %202
  %204 = load ptr, ptr %3, align 8, !tbaa !37
  %205 = getelementptr inbounds nuw %struct.FillBordersContext, ptr %204, i32 0, i32 9
  %206 = load i32, ptr %5, align 4, !tbaa !11
  %207 = sext i32 %206 to i64
  %208 = getelementptr inbounds [4 x i32], ptr %205, i64 0, i64 %207
  %209 = load i32, ptr %208, align 4, !tbaa !11
  %210 = sext i32 %209 to i64
  call void @llvm.memcpy.p0.p0.i64(ptr align 1 %188, ptr align 1 %203, i64 %210, i1 false)
  br label %211

211:                                              ; preds = %182
  %212 = load i32, ptr %6, align 4, !tbaa !11
  %213 = add nsw i32 %212, 1
  store i32 %213, ptr %6, align 4, !tbaa !11
  br label %172, !llvm.loop !112

214:                                              ; preds = %172
  store i32 0, ptr %6, align 4, !tbaa !11
  br label %215

215:                                              ; preds = %276, %214
  %216 = load i32, ptr %6, align 4, !tbaa !11
  %217 = load ptr, ptr %3, align 8, !tbaa !37
  %218 = getelementptr inbounds nuw %struct.FillBordersContext, ptr %217, i32 0, i32 8
  %219 = load i32, ptr %5, align 4, !tbaa !11
  %220 = sext i32 %219 to i64
  %221 = getelementptr inbounds [4 x %struct.Borders], ptr %218, i64 0, i64 %220
  %222 = getelementptr inbounds nuw %struct.Borders, ptr %221, i32 0, i32 3
  %223 = load i32, ptr %222, align 4, !tbaa !64
  %224 = icmp slt i32 %216, %223
  br i1 %224, label %225, label %279

225:                                              ; preds = %215
  %226 = load ptr, ptr %8, align 8, !tbaa !9
  %227 = load ptr, ptr %3, align 8, !tbaa !37
  %228 = getelementptr inbounds nuw %struct.FillBordersContext, ptr %227, i32 0, i32 10
  %229 = load i32, ptr %5, align 4, !tbaa !11
  %230 = sext i32 %229 to i64
  %231 = getelementptr inbounds [4 x i32], ptr %228, i64 0, i64 %230
  %232 = load i32, ptr %231, align 4, !tbaa !11
  %233 = load ptr, ptr %3, align 8, !tbaa !37
  %234 = getelementptr inbounds nuw %struct.FillBordersContext, ptr %233, i32 0, i32 8
  %235 = load i32, ptr %5, align 4, !tbaa !11
  %236 = sext i32 %235 to i64
  %237 = getelementptr inbounds [4 x %struct.Borders], ptr %234, i64 0, i64 %236
  %238 = getelementptr inbounds nuw %struct.Borders, ptr %237, i32 0, i32 3
  %239 = load i32, ptr %238, align 4, !tbaa !64
  %240 = sub nsw i32 %232, %239
  %241 = load i32, ptr %6, align 4, !tbaa !11
  %242 = add nsw i32 %240, %241
  %243 = sext i32 %242 to i64
  %244 = load i64, ptr %9, align 8, !tbaa !70
  %245 = mul nsw i64 %243, %244
  %246 = getelementptr inbounds i8, ptr %226, i64 %245
  %247 = load ptr, ptr %8, align 8, !tbaa !9
  %248 = load ptr, ptr %3, align 8, !tbaa !37
  %249 = getelementptr inbounds nuw %struct.FillBordersContext, ptr %248, i32 0, i32 10
  %250 = load i32, ptr %5, align 4, !tbaa !11
  %251 = sext i32 %250 to i64
  %252 = getelementptr inbounds [4 x i32], ptr %249, i64 0, i64 %251
  %253 = load i32, ptr %252, align 4, !tbaa !11
  %254 = load ptr, ptr %3, align 8, !tbaa !37
  %255 = getelementptr inbounds nuw %struct.FillBordersContext, ptr %254, i32 0, i32 8
  %256 = load i32, ptr %5, align 4, !tbaa !11
  %257 = sext i32 %256 to i64
  %258 = getelementptr inbounds [4 x %struct.Borders], ptr %255, i64 0, i64 %257
  %259 = getelementptr inbounds nuw %struct.Borders, ptr %258, i32 0, i32 3
  %260 = load i32, ptr %259, align 4, !tbaa !64
  %261 = sub nsw i32 %253, %260
  %262 = sub nsw i32 %261, 2
  %263 = load i32, ptr %6, align 4, !tbaa !11
  %264 = sub nsw i32 %262, %263
  %265 = sext i32 %264 to i64
  %266 = load i64, ptr %9, align 8, !tbaa !70
  %267 = mul nsw i64 %265, %266
  %268 = getelementptr inbounds i8, ptr %247, i64 %267
  %269 = load ptr, ptr %3, align 8, !tbaa !37
  %270 = getelementptr inbounds nuw %struct.FillBordersContext, ptr %269, i32 0, i32 9
  %271 = load i32, ptr %5, align 4, !tbaa !11
  %272 = sext i32 %271 to i64
  %273 = getelementptr inbounds [4 x i32], ptr %270, i64 0, i64 %272
  %274 = load i32, ptr %273, align 4, !tbaa !11
  %275 = sext i32 %274 to i64
  call void @llvm.memcpy.p0.p0.i64(ptr align 1 %246, ptr align 1 %268, i64 %275, i1 false)
  br label %276

276:                                              ; preds = %225
  %277 = load i32, ptr %6, align 4, !tbaa !11
  %278 = add nsw i32 %277, 1
  store i32 %278, ptr %6, align 4, !tbaa !11
  br label %215, !llvm.loop !113

279:                                              ; preds = %215
  call void @llvm.lifetime.end.p0(i64 8, ptr %9) #8
  call void @llvm.lifetime.end.p0(i64 8, ptr %8) #8
  br label %280

280:                                              ; preds = %279
  %281 = load i32, ptr %5, align 4, !tbaa !11
  %282 = add nsw i32 %281, 1
  store i32 %282, ptr %5, align 4, !tbaa !11
  br label %10, !llvm.loop !114

283:                                              ; preds = %10
  call void @llvm.lifetime.end.p0(i64 4, ptr %7) #8
  call void @llvm.lifetime.end.p0(i64 4, ptr %6) #8
  call void @llvm.lifetime.end.p0(i64 4, ptr %5) #8
  ret void
}