; Function Attrs: nofree norecurse nosync nounwind memory(readwrite, inaccessiblemem: none) uwtable
define internal void @reflect_borders8(ptr noundef readonly captures(none) %0, ptr noundef readonly captures(none) %1) #3 {
  %3 = getelementptr inbounds nuw i8, ptr %0, i64 28
  %4 = load i32, ptr %3, align 4, !tbaa !39
  %5 = icmp sgt i32 %4, 0
  br i1 %5, label %.lr.ph106, label %._crit_edge107

.lr.ph106:                                        ; preds = %2
  %6 = getelementptr inbounds nuw i8, ptr %1, i64 64
  %7 = getelementptr inbounds nuw i8, ptr %0, i64 36
  %8 = getelementptr inbounds nuw i8, ptr %0, i64 116
  %9 = getelementptr inbounds nuw i8, ptr %0, i64 100
  br label %10

10:                                               ; preds = %.lr.ph106, %._crit_edge103
  %indvars.iv119 = phi i64 [ 0, %.lr.ph106 ], [ %indvars.iv.next120, %._crit_edge103 ]
  %11 = getelementptr inbounds nuw [8 x ptr], ptr %1, i64 0, i64 %indvars.iv119
  %12 = load ptr, ptr %11, align 8, !tbaa !62
  %13 = getelementptr inbounds nuw [8 x i32], ptr %6, i64 0, i64 %indvars.iv119
  %14 = load i32, ptr %13, align 4, !tbaa !45
  %15 = sext i32 %14 to i64
  %16 = getelementptr inbounds nuw [4 x %struct.Borders], ptr %7, i64 0, i64 %indvars.iv119
  %17 = getelementptr inbounds nuw i8, ptr %16, i64 8
  %18 = load i32, ptr %17, align 4, !tbaa !55
  %19 = getelementptr inbounds nuw [4 x i32], ptr %8, i64 0, i64 %indvars.iv119
  %20 = getelementptr inbounds nuw i8, ptr %16, i64 12
  %21 = load i32, ptr %19, align 4, !tbaa !45
  %22 = load i32, ptr %20, align 4, !tbaa !56
  %23 = sub nsw i32 %21, %22
  %24 = icmp slt i32 %18, %23
  br i1 %24, label %.preheader91.lr.ph, label %.preheader93

.preheader91.lr.ph:                               ; preds = %10
  %25 = getelementptr inbounds nuw i8, ptr %16, i64 4
  %26 = getelementptr inbounds nuw [4 x i32], ptr %9, i64 0, i64 %indvars.iv119
  %27 = sext i32 %18 to i64
  %invariant.gep = getelementptr i8, ptr %12, i64 -2
  br label %.preheader91

.preheader93.loopexit:                            ; preds = %._crit_edge
  %.pre = load i32, ptr %17, align 4, !tbaa !55
  br label %.preheader93

.preheader93:                                     ; preds = %.preheader93.loopexit, %10
  %28 = phi i32 [ %65, %.preheader93.loopexit ], [ %22, %10 ]
  %29 = phi i32 [ %.pre, %.preheader93.loopexit ], [ %18, %10 ]
  %30 = icmp sgt i32 %29, 0
  br i1 %30, label %.lr.ph100, label %.preheader92

.lr.ph100:                                        ; preds = %.preheader93
  %31 = getelementptr inbounds nuw [4 x i32], ptr %9, i64 0, i64 %indvars.iv119
  br label %72

.preheader91:                                     ; preds = %.preheader91.lr.ph, %._crit_edge
  %indvars.iv113 = phi i64 [ %27, %.preheader91.lr.ph ], [ %indvars.iv.next114, %._crit_edge ]
  %32 = load i32, ptr %16, align 4, !tbaa !52
  %33 = icmp sgt i32 %32, 0
  br i1 %33, label %.lr.ph, label %.preheader

.lr.ph:                                           ; preds = %.preheader91
  %34 = mul nsw i64 %indvars.iv113, %15
  %35 = getelementptr i8, ptr %12, i64 %34
  br label %39

.preheader:                                       ; preds = %39, %.preheader91
  %36 = load i32, ptr %25, align 4, !tbaa !54
  %37 = icmp sgt i32 %36, 0
  br i1 %37, label %.lr.ph97, label %._crit_edge

.lr.ph97:                                         ; preds = %.preheader
  %38 = mul nsw i64 %indvars.iv113, %15
  br label %51

39:                                               ; preds = %.lr.ph, %39
  %indvars.iv = phi i64 [ 0, %.lr.ph ], [ %indvars.iv.next, %39 ]
  %40 = phi i32 [ %32, %.lr.ph ], [ %48, %39 ]
  %41 = shl nsw i32 %40, 1
  %42 = sext i32 %41 to i64
  %43 = sub i64 %34, %indvars.iv
  %44 = getelementptr i8, ptr %12, i64 %43
  %45 = getelementptr i8, ptr %44, i64 %42
  %46 = load i8, ptr %45, align 1, !tbaa !58
  %47 = getelementptr i8, ptr %35, i64 %indvars.iv
  store i8 %46, ptr %47, align 1, !tbaa !58
  %indvars.iv.next = add nuw nsw i64 %indvars.iv, 1
  %48 = load i32, ptr %16, align 4, !tbaa !52
  %49 = sext i32 %48 to i64
  %50 = icmp slt i64 %indvars.iv.next, %49
  br i1 %50, label %39, label %.preheader, !llvm.loop !99

51:                                               ; preds = %.lr.ph97, %51
  %indvars.iv110 = phi i64 [ 0, %.lr.ph97 ], [ %indvars.iv.next111, %51 ]
  %52 = phi i32 [ %36, %.lr.ph97 ], [ %61, %51 ]
  %53 = load i32, ptr %26, align 4, !tbaa !45
  %54 = sext i32 %53 to i64
  %55 = sext i32 %52 to i64
  %56 = sub i64 %38, %55
  %57 = add i64 %56, %54
  %reass.sub = sub i64 %57, %indvars.iv110
  %gep = getelementptr i8, ptr %invariant.gep, i64 %reass.sub
  %58 = load i8, ptr %gep, align 1, !tbaa !58
  %59 = getelementptr i8, ptr %12, i64 %57
  %60 = getelementptr i8, ptr %59, i64 %indvars.iv110
  store i8 %58, ptr %60, align 1, !tbaa !58
  %indvars.iv.next111 = add nuw nsw i64 %indvars.iv110, 1
  %61 = load i32, ptr %25, align 4, !tbaa !54
  %62 = sext i32 %61 to i64
  %63 = icmp slt i64 %indvars.iv.next111, %62
  br i1 %63, label %51, label %._crit_edge, !llvm.loop !100

._crit_edge:                                      ; preds = %51, %.preheader
  %indvars.iv.next114 = add nsw i64 %indvars.iv113, 1
  %64 = load i32, ptr %19, align 4, !tbaa !45
  %65 = load i32, ptr %20, align 4, !tbaa !56
  %66 = sub nsw i32 %64, %65
  %67 = sext i32 %66 to i64
  %68 = icmp slt i64 %indvars.iv.next114, %67
  br i1 %68, label %.preheader91, label %.preheader93.loopexit, !llvm.loop !101

.preheader92.loopexit:                            ; preds = %72
  %.pre122 = load i32, ptr %20, align 4, !tbaa !56
  br label %.preheader92

.preheader92:                                     ; preds = %.preheader92.loopexit, %.preheader93
  %69 = phi i32 [ %.pre122, %.preheader92.loopexit ], [ %28, %.preheader93 ]
  %70 = icmp sgt i32 %69, 0
  br i1 %70, label %.lr.ph102, label %._crit_edge103

.lr.ph102:                                        ; preds = %.preheader92
  %71 = getelementptr inbounds nuw [4 x i32], ptr %9, i64 0, i64 %indvars.iv119
  br label %87

72:                                               ; preds = %.lr.ph100, %72
  %indvars.iv116 = phi i64 [ 0, %.lr.ph100 ], [ %indvars.iv.next117, %72 ]
  %73 = phi i32 [ %29, %.lr.ph100 ], [ %84, %72 ]
  %74 = mul nsw i64 %indvars.iv116, %15
  %75 = getelementptr inbounds i8, ptr %12, i64 %74
  %76 = shl nsw i32 %73, 1
  %77 = trunc nuw nsw i64 %indvars.iv116 to i32
  %78 = sub nsw i32 %76, %77
  %79 = sext i32 %78 to i64
  %80 = mul nsw i64 %79, %15
  %81 = getelementptr inbounds i8, ptr %12, i64 %80
  %82 = load i32, ptr %31, align 4, !tbaa !45
  %83 = sext i32 %82 to i64
  tail call void @llvm.memcpy.p0.p0.i64(ptr align 1 %75, ptr align 1 %81, i64 %83, i1 false)
  %indvars.iv.next117 = add nuw nsw i64 %indvars.iv116, 1
  %84 = load i32, ptr %17, align 4, !tbaa !55
  %85 = sext i32 %84 to i64
  %86 = icmp slt i64 %indvars.iv.next117, %85
  br i1 %86, label %72, label %.preheader92.loopexit, !llvm.loop !102

87:                                               ; preds = %.lr.ph102, %87
  %88 = phi i32 [ %69, %.lr.ph102 ], [ %102, %87 ]
  %.2101 = phi i32 [ 0, %.lr.ph102 ], [ %101, %87 ]
  %89 = load i32, ptr %19, align 4, !tbaa !45
  %90 = sub nsw i32 %89, %88
  %91 = add nsw i32 %90, %.2101
  %92 = sext i32 %91 to i64
  %93 = mul nsw i64 %92, %15
  %94 = getelementptr inbounds i8, ptr %12, i64 %93
  %reass.sub108 = sub i32 %90, %.2101
  %95 = add i32 %reass.sub108, -2
  %96 = sext i32 %95 to i64
  %97 = mul nsw i64 %96, %15
  %98 = getelementptr inbounds i8, ptr %12, i64 %97
  %99 = load i32, ptr %71, align 4, !tbaa !45
  %100 = sext i32 %99 to i64
  tail call void @llvm.memcpy.p0.p0.i64(ptr align 1 %94, ptr align 1 %98, i64 %100, i1 false)
  %101 = add nuw nsw i32 %.2101, 1
  %102 = load i32, ptr %20, align 4, !tbaa !56
  %103 = icmp slt i32 %101, %102
  br i1 %103, label %87, label %._crit_edge103, !llvm.loop !103

._crit_edge103:                                   ; preds = %87, %.preheader92
  %indvars.iv.next120 = add nuw nsw i64 %indvars.iv119, 1
  %104 = load i32, ptr %3, align 4, !tbaa !39
  %105 = sext i32 %104 to i64
  %106 = icmp slt i64 %indvars.iv.next120, %105
  br i1 %106, label %10, label %._crit_edge107, !llvm.loop !104

._crit_edge107:                                   ; preds = %._crit_edge103, %2
  ret void
}